; Function Attrs: mustprogress nofree norecurse nosync nounwind null_pointer_is_valid sspstrong willreturn memory(argmem: readwrite) uwtable
define internal range(i32 0, 2) i32 @uint64_val_to_sinteger64(ptr noundef readonly captures(none) %0, ptr noundef writeonly captures(none) %1) #3 {
  %3 = getelementptr inbounds nuw i8, ptr %0, i64 8
  %4 = load i64, ptr %3, align 8
  %5 = icmp slt i64 %4, 0
  br i1 %5, label %7, label %6

6:                                                ; preds = %2
  store i64 %4, ptr %1, align 8
  br label %7

7:                                                ; preds = %2, %6
  %.0 = phi i32 [ 0, %6 ], [ 1, %2 ]
  ret i32 %.0
}